
sdk.elf：     文件格式 elf32-littlearm


Disassembly of section .text:

87800000 <_start>:
87800000:	e59ff104 	ldr	pc, [pc, #260]	@ 8780010c <FIQ_Handler+0x8>
87800004:	e59ff104 	ldr	pc, [pc, #260]	@ 87800110 <FIQ_Handler+0xc>
87800008:	e59ff104 	ldr	pc, [pc, #260]	@ 87800114 <FIQ_Handler+0x10>
8780000c:	e59ff104 	ldr	pc, [pc, #260]	@ 87800118 <FIQ_Handler+0x14>
87800010:	e59ff104 	ldr	pc, [pc, #260]	@ 8780011c <FIQ_Handler+0x18>
87800014:	e59ff104 	ldr	pc, [pc, #260]	@ 87800120 <FIQ_Handler+0x1c>
87800018:	e59ff104 	ldr	pc, [pc, #260]	@ 87800124 <FIQ_Handler+0x20>
8780001c:	e59ff104 	ldr	pc, [pc, #260]	@ 87800128 <FIQ_Handler+0x24>

87800020 <Reset_Handler>:
87800020:	f10c0080 	cpsid	i
87800024:	ee110f10 	mrc	15, 0, r0, cr1, cr0, {0}
87800028:	e3c00a01 	bic	r0, r0, #4096	@ 0x1000
8780002c:	e3c00004 	bic	r0, r0, #4
87800030:	e3c00002 	bic	r0, r0, #2
87800034:	e3c00b02 	bic	r0, r0, #2048	@ 0x800
87800038:	e3c00001 	bic	r0, r0, #1
8780003c:	ee010f10 	mcr	15, 0, r0, cr1, cr0, {0}
87800040:	e10f0000 	mrs	r0, CPSR
87800044:	e3c0001f 	bic	r0, r0, #31
87800048:	e380001f 	orr	r0, r0, #31
8780004c:	e129f000 	msr	CPSR_fc, r0
87800050:	e59fd0d4 	ldr	sp, [pc, #212]	@ 8780012c <FIQ_Handler+0x28>
87800054:	e10f0000 	mrs	r0, CPSR
87800058:	e3c0001f 	bic	r0, r0, #31
8780005c:	e3800012 	orr	r0, r0, #18
87800060:	e129f000 	msr	CPSR_fc, r0
87800064:	e59fd0c4 	ldr	sp, [pc, #196]	@ 87800130 <FIQ_Handler+0x2c>
87800068:	e10f0000 	mrs	r0, CPSR
8780006c:	e3c0001f 	bic	r0, r0, #31
87800070:	e3800013 	orr	r0, r0, #19
87800074:	e129f000 	msr	CPSR_fc, r0
87800078:	e59fd0b4 	ldr	sp, [pc, #180]	@ 87800134 <FIQ_Handler+0x30>
8780007c:	f1080080 	cpsie	i
87800080:	ea000138 	b	87800568 <__main_from_arm>

87800084 <Undef_Handler>:
87800084:	e59f0084 	ldr	r0, [pc, #132]	@ 87800110 <FIQ_Handler+0xc>
87800088:	e12fff10 	bx	r0

8780008c <SVC_Handler>:
8780008c:	e59f0080 	ldr	r0, [pc, #128]	@ 87800114 <FIQ_Handler+0x10>
87800090:	e12fff10 	bx	r0

87800094 <PreAbort_Handler>:
87800094:	e59f007c 	ldr	r0, [pc, #124]	@ 87800118 <FIQ_Handler+0x14>
87800098:	e12fff10 	bx	r0

8780009c <DataAbort_Handler>:
8780009c:	e59f0078 	ldr	r0, [pc, #120]	@ 8780011c <FIQ_Handler+0x18>
878000a0:	e12fff10 	bx	r0

878000a4 <NotUsed_Handler>:
878000a4:	e59f0074 	ldr	r0, [pc, #116]	@ 87800120 <FIQ_Handler+0x1c>
878000a8:	e12fff10 	bx	r0

878000ac <IRQ_Handler>:
878000ac:	f10c0080 	cpsid	i
878000b0:	e92d100f 	push	{r0, r1, r2, r3, ip}
878000b4:	e52de004 	push	{lr}		@ (str lr, [sp, #-4]!)
878000b8:	e14f0000 	mrs	r0, SPSR
878000bc:	e52d0004 	push	{r0}		@ (str r0, [sp, #-4]!)
878000c0:	ee8f1f10 	mcr	15, 4, r1, cr15, cr0, {0}
878000c4:	e2811a02 	add	r1, r1, #8192	@ 0x2000
878000c8:	e591000c 	ldr	r0, [r1, #12]
878000cc:	e92d0003 	push	{r0, r1}
878000d0:	f1020013 	cps	#19
878000d4:	e52de004 	push	{lr}		@ (str lr, [sp, #-4]!)
878000d8:	e59f2058 	ldr	r2, [pc, #88]	@ 87800138 <FIQ_Handler+0x34>
878000dc:	e12fff32 	blx	r2
878000e0:	e49de004 	pop	{lr}		@ (ldr lr, [sp], #4)
878000e4:	f1020012 	cps	#18
878000e8:	e8bd0003 	pop	{r0, r1}
878000ec:	e5810010 	str	r0, [r1, #16]
878000f0:	e49d0004 	pop	{r0}		@ (ldr r0, [sp], #4)
878000f4:	e16ff000 	msr	SPSR_fsxc, r0
878000f8:	e8bd100f 	pop	{r0, r1, r2, r3, ip}
878000fc:	e49de004 	pop	{lr}		@ (ldr lr, [sp], #4)
87800100:	e24ef004 	sub	pc, lr, #4

87800104 <FIQ_Handler>:
87800104:	e59f001c 	ldr	r0, [pc, #28]	@ 87800128 <FIQ_Handler+0x24>
87800108:	e12fff10 	bx	r0
8780010c:	87800020 	strhi	r0, [r0, r0, lsr #32]
87800110:	87800084 	strhi	r0, [r0, r4, lsl #1]
87800114:	8780008c 	strhi	r0, [r0, ip, lsl #1]
87800118:	87800094 			@ <UNDEFINED> instruction: 0x87800094
8780011c:	8780009c 			@ <UNDEFINED> instruction: 0x8780009c
87800120:	878000a4 	strhi	r0, [r0, r4, lsr #1]
87800124:	878000ac 	strhi	r0, [r0, ip, lsr #1]
87800128:	87800104 	strhi	r0, [r0, r4, lsl #2]
8780012c:	80600000 	rsbhi	r0, r0, r0
87800130:	80400000 	subhi	r0, r0, r0
87800134:	80200000 	eorhi	r0, r0, r0
87800138:	87800531 			@ <UNDEFINED> instruction: 0x87800531
8780013c:	00001e41 	andeq	r1, r0, r1, asr #28
87800140:	61656100 	cmnvs	r5, r0, lsl #2
87800144:	01006962 	tsteq	r0, r2, ror #18
87800148:	00000014 	andeq	r0, r0, r4, lsl r0
8780014c:	412d3705 			@ <UNDEFINED> instruction: 0x412d3705
87800150:	070a0600 	streq	r0, [sl, -r0, lsl #12]
87800154:	09010841 	stmdbeq	r1, {r0, r6, fp}
87800158:	00040a02 	andeq	r0, r4, r2, lsl #20

8780015c <clock_init>:
8780015c:	f44f 4380 	mov.w	r3, #16384	@ 0x4000
87800160:	f2c0 230c 	movt	r3, #524	@ 0x20c
87800164:	f04f 32ff 	mov.w	r2, #4294967295	@ 0xffffffff
87800168:	669a      	str	r2, [r3, #104]	@ 0x68
8780016a:	66da      	str	r2, [r3, #108]	@ 0x6c
8780016c:	671a      	str	r2, [r3, #112]	@ 0x70
8780016e:	675a      	str	r2, [r3, #116]	@ 0x74
87800170:	679a      	str	r2, [r3, #120]	@ 0x78
87800172:	67da      	str	r2, [r3, #124]	@ 0x7c
87800174:	f8c3 2080 	str.w	r2, [r3, #128]	@ 0x80
87800178:	4770      	bx	lr
8780017a:	bf00      	nop

8780017c <imx6ul_clock_init>:
8780017c:	f44f 4380 	mov.w	r3, #16384	@ 0x4000
87800180:	f2c0 230c 	movt	r3, #524	@ 0x20c
87800184:	b410      	push	{r4}
87800186:	68da      	ldr	r2, [r3, #12]
87800188:	0751      	lsls	r1, r2, #29
8780018a:	d407      	bmi.n	8780019c <imx6ul_clock_init+0x20>
8780018c:	68da      	ldr	r2, [r3, #12]
8780018e:	f422 7280 	bic.w	r2, r2, #256	@ 0x100
87800192:	60da      	str	r2, [r3, #12]
87800194:	68da      	ldr	r2, [r3, #12]
87800196:	f042 0204 	orr.w	r2, r2, #4
8780019a:	60da      	str	r2, [r3, #12]
8780019c:	f44f 4200 	mov.w	r2, #32768	@ 0x8000
878001a0:	f2c0 220c 	movt	r2, #524	@ 0x20c
878001a4:	f44f 4380 	mov.w	r3, #16384	@ 0x4000
878001a8:	f2c0 230c 	movt	r3, #524	@ 0x20c
878001ac:	f241 041b 	movw	r4, #4123	@ 0x101b
878001b0:	f2c2 0418 	movt	r4, #8216	@ 0x2018
878001b4:	6811      	ldr	r1, [r2, #0]
878001b6:	f241 000c 	movw	r0, #4108	@ 0x100c
878001ba:	f2c1 3011 	movt	r0, #4881	@ 0x1311
878001be:	f441 5101 	orr.w	r1, r1, #8256	@ 0x2040
878001c2:	f041 0118 	orr.w	r1, r1, #24
878001c6:	6011      	str	r1, [r2, #0]
878001c8:	68d9      	ldr	r1, [r3, #12]
878001ca:	f021 0104 	bic.w	r1, r1, #4
878001ce:	60d9      	str	r1, [r3, #12]
878001d0:	6919      	ldr	r1, [r3, #16]
878001d2:	f041 0101 	orr.w	r1, r1, #1
878001d6:	6119      	str	r1, [r3, #16]
878001d8:	f8d2 1100 	ldr.w	r1, [r2, #256]	@ 0x100
878001dc:	f001 31c0 	and.w	r1, r1, #3233857728	@ 0xc0c0c0c0
878001e0:	430c      	orrs	r4, r1
878001e2:	f8c2 4100 	str.w	r4, [r2, #256]	@ 0x100
878001e6:	f8d2 10f0 	ldr.w	r1, [r2, #240]	@ 0xf0
878001ea:	4308      	orrs	r0, r1
878001ec:	f8c2 00f0 	str.w	r0, [r2, #240]	@ 0xf0
878001f0:	699a      	ldr	r2, [r3, #24]
878001f2:	f422 2240 	bic.w	r2, r2, #786432	@ 0xc0000
878001f6:	619a      	str	r2, [r3, #24]
878001f8:	699a      	ldr	r2, [r3, #24]
878001fa:	f442 2280 	orr.w	r2, r2, #262144	@ 0x40000
878001fe:	619a      	str	r2, [r3, #24]
87800200:	695a      	ldr	r2, [r3, #20]
87800202:	f022 7200 	bic.w	r2, r2, #33554432	@ 0x2000000
87800206:	615a      	str	r2, [r3, #20]
87800208:	6c9a      	ldr	r2, [r3, #72]	@ 0x48
8780020a:	0692      	lsls	r2, r2, #26
8780020c:	d4fc      	bmi.n	87800208 <imx6ul_clock_init+0x8c>
8780020e:	695a      	ldr	r2, [r3, #20]
87800210:	f85d 4b04 	ldr.w	r4, [sp], #4
87800214:	f422 7240 	bic.w	r2, r2, #768	@ 0x300
87800218:	615a      	str	r2, [r3, #20]
8780021a:	695a      	ldr	r2, [r3, #20]
8780021c:	f442 7280 	orr.w	r2, r2, #256	@ 0x100
87800220:	615a      	str	r2, [r3, #20]
87800222:	69da      	ldr	r2, [r3, #28]
87800224:	f022 0240 	bic.w	r2, r2, #64	@ 0x40
87800228:	61da      	str	r2, [r3, #28]
8780022a:	69da      	ldr	r2, [r3, #28]
8780022c:	f022 0207 	bic.w	r2, r2, #7
87800230:	61da      	str	r2, [r3, #28]
87800232:	4770      	bx	lr

87800234 <led_switch>:
87800234:	b950      	cbnz	r0, 8780024c <led_switch+0x18>
87800236:	2901      	cmp	r1, #1
87800238:	d009      	beq.n	8780024e <led_switch+0x1a>
8780023a:	b939      	cbnz	r1, 8780024c <led_switch+0x18>
8780023c:	f44f 4340 	mov.w	r3, #49152	@ 0xc000
87800240:	f2c0 2309 	movt	r3, #521	@ 0x209
87800244:	681a      	ldr	r2, [r3, #0]
87800246:	f042 0208 	orr.w	r2, r2, #8
8780024a:	601a      	str	r2, [r3, #0]
8780024c:	4770      	bx	lr
8780024e:	f44f 4340 	mov.w	r3, #49152	@ 0xc000
87800252:	f2c0 2309 	movt	r3, #521	@ 0x209
87800256:	681a      	ldr	r2, [r3, #0]
87800258:	f022 0208 	bic.w	r2, r2, #8
8780025c:	601a      	str	r2, [r3, #0]
8780025e:	4770      	bx	lr

87800260 <led_init>:
87800260:	2200      	movs	r2, #0
87800262:	f2c0 220e 	movt	r2, #526	@ 0x20e
87800266:	f44f 4340 	mov.w	r3, #49152	@ 0xc000
8780026a:	f2c0 2309 	movt	r3, #521	@ 0x209
8780026e:	2005      	movs	r0, #5
87800270:	f241 01b0 	movw	r1, #4272	@ 0x10b0
87800274:	6690      	str	r0, [r2, #104]	@ 0x68
87800276:	f8c2 12f4 	str.w	r1, [r2, #756]	@ 0x2f4
8780027a:	685a      	ldr	r2, [r3, #4]
8780027c:	f042 0208 	orr.w	r2, r2, #8
87800280:	605a      	str	r2, [r3, #4]
87800282:	681a      	ldr	r2, [r3, #0]
87800284:	f022 0208 	bic.w	r2, r2, #8
87800288:	601a      	str	r2, [r3, #0]
8780028a:	4770      	bx	lr

8780028c <led_on>:
8780028c:	f44f 4340 	mov.w	r3, #49152	@ 0xc000
87800290:	f2c0 2309 	movt	r3, #521	@ 0x209
87800294:	681a      	ldr	r2, [r3, #0]
87800296:	f022 0208 	bic.w	r2, r2, #8
8780029a:	601a      	str	r2, [r3, #0]
8780029c:	4770      	bx	lr
8780029e:	bf00      	nop

878002a0 <led_off>:
878002a0:	f44f 4340 	mov.w	r3, #49152	@ 0xc000
878002a4:	f2c0 2309 	movt	r3, #521	@ 0x209
878002a8:	681a      	ldr	r2, [r3, #0]
878002aa:	f042 0208 	orr.w	r2, r2, #8
878002ae:	601a      	str	r2, [r3, #0]
878002b0:	4770      	bx	lr
878002b2:	bf00      	nop

878002b4 <delay_short>:
878002b4:	b082      	sub	sp, #8
878002b6:	9001      	str	r0, [sp, #4]
878002b8:	9b01      	ldr	r3, [sp, #4]
878002ba:	1e5a      	subs	r2, r3, #1
878002bc:	9201      	str	r2, [sp, #4]
878002be:	2b00      	cmp	r3, #0
878002c0:	d1fa      	bne.n	878002b8 <delay_short+0x4>
878002c2:	b002      	add	sp, #8
878002c4:	4770      	bx	lr
878002c6:	bf00      	nop

878002c8 <delay>:
878002c8:	b082      	sub	sp, #8
878002ca:	9001      	str	r0, [sp, #4]
878002cc:	9b01      	ldr	r3, [sp, #4]
878002ce:	1e5a      	subs	r2, r3, #1
878002d0:	9201      	str	r2, [sp, #4]
878002d2:	b153      	cbz	r3, 878002ea <delay+0x22>
878002d4:	f240 73ff 	movw	r3, #2047	@ 0x7ff
878002d8:	461a      	mov	r2, r3
878002da:	3b01      	subs	r3, #1
878002dc:	2a00      	cmp	r2, #0
878002de:	d1fb      	bne.n	878002d8 <delay+0x10>
878002e0:	9b01      	ldr	r3, [sp, #4]
878002e2:	1e5a      	subs	r2, r3, #1
878002e4:	9201      	str	r2, [sp, #4]
878002e6:	2b00      	cmp	r3, #0
878002e8:	d1f4      	bne.n	878002d4 <delay+0xc>
878002ea:	b002      	add	sp, #8
878002ec:	4770      	bx	lr
878002ee:	bf00      	nop

878002f0 <beep_init>:
878002f0:	2200      	movs	r2, #0
878002f2:	f2c0 2229 	movt	r2, #553	@ 0x229
878002f6:	f44f 4340 	mov.w	r3, #49152	@ 0xc000
878002fa:	f2c0 230a 	movt	r3, #522	@ 0x20a
878002fe:	2005      	movs	r0, #5
87800300:	f241 01b0 	movw	r1, #4272	@ 0x10b0
87800304:	60d0      	str	r0, [r2, #12]
87800306:	6511      	str	r1, [r2, #80]	@ 0x50
87800308:	685a      	ldr	r2, [r3, #4]
8780030a:	f042 0202 	orr.w	r2, r2, #2
8780030e:	605a      	str	r2, [r3, #4]
87800310:	681a      	ldr	r2, [r3, #0]
87800312:	f022 0202 	bic.w	r2, r2, #2
87800316:	601a      	str	r2, [r3, #0]
87800318:	4770      	bx	lr
8780031a:	bf00      	nop

8780031c <beep_switch>:
8780031c:	b950      	cbnz	r0, 87800334 <beep_switch+0x18>
8780031e:	2901      	cmp	r1, #1
87800320:	d009      	beq.n	87800336 <beep_switch+0x1a>
87800322:	b939      	cbnz	r1, 87800334 <beep_switch+0x18>
87800324:	f44f 4340 	mov.w	r3, #49152	@ 0xc000
87800328:	f2c0 230a 	movt	r3, #522	@ 0x20a
8780032c:	681a      	ldr	r2, [r3, #0]
8780032e:	f042 0202 	orr.w	r2, r2, #2
87800332:	601a      	str	r2, [r3, #0]
87800334:	4770      	bx	lr
87800336:	f44f 4340 	mov.w	r3, #49152	@ 0xc000
8780033a:	f2c0 230a 	movt	r3, #522	@ 0x20a
8780033e:	681a      	ldr	r2, [r3, #0]
87800340:	f022 0202 	bic.w	r2, r2, #2
87800344:	601a      	str	r2, [r3, #0]
87800346:	4770      	bx	lr

87800348 <beep_on>:
87800348:	f44f 4340 	mov.w	r3, #49152	@ 0xc000
8780034c:	f2c0 230a 	movt	r3, #522	@ 0x20a
87800350:	681a      	ldr	r2, [r3, #0]
87800352:	f022 0202 	bic.w	r2, r2, #2
87800356:	601a      	str	r2, [r3, #0]
87800358:	4770      	bx	lr
8780035a:	bf00      	nop

8780035c <beep_off>:
8780035c:	f44f 4340 	mov.w	r3, #49152	@ 0xc000
87800360:	f2c0 230a 	movt	r3, #522	@ 0x20a
87800364:	681a      	ldr	r2, [r3, #0]
87800366:	f042 0202 	orr.w	r2, r2, #2
8780036a:	601a      	str	r2, [r3, #0]
8780036c:	4770      	bx	lr
8780036e:	bf00      	nop

87800370 <gpio_init>:
87800370:	6813      	ldr	r3, [r2, #0]
87800372:	2b01      	cmp	r3, #1
87800374:	d013      	beq.n	8780039e <gpio_init+0x2e>
87800376:	b103      	cbz	r3, 8780037a <gpio_init+0xa>
87800378:	4770      	bx	lr
8780037a:	b410      	push	{r4}
8780037c:	2301      	movs	r3, #1
8780037e:	6854      	ldr	r4, [r2, #4]
87800380:	6842      	ldr	r2, [r0, #4]
87800382:	408b      	lsls	r3, r1
87800384:	43d9      	mvns	r1, r3
87800386:	ea22 0203 	bic.w	r2, r2, r3
8780038a:	6042      	str	r2, [r0, #4]
8780038c:	b164      	cbz	r4, 878003a8 <gpio_init+0x38>
8780038e:	2c01      	cmp	r4, #1
87800390:	f85d 4b04 	ldr.w	r4, [sp], #4
87800394:	bf02      	ittt	eq
87800396:	6802      	ldreq	r2, [r0, #0]
87800398:	4313      	orreq	r3, r2
8780039a:	6003      	streq	r3, [r0, #0]
8780039c:	4770      	bx	lr
8780039e:	6842      	ldr	r2, [r0, #4]
878003a0:	408b      	lsls	r3, r1
878003a2:	4313      	orrs	r3, r2
878003a4:	6043      	str	r3, [r0, #4]
878003a6:	4770      	bx	lr
878003a8:	6803      	ldr	r3, [r0, #0]
878003aa:	f85d 4b04 	ldr.w	r4, [sp], #4
878003ae:	4019      	ands	r1, r3
878003b0:	6001      	str	r1, [r0, #0]
878003b2:	4770      	bx	lr

878003b4 <gpio_pin_read>:
878003b4:	6800      	ldr	r0, [r0, #0]
878003b6:	40c8      	lsrs	r0, r1
878003b8:	f000 0001 	and.w	r0, r0, #1
878003bc:	4770      	bx	lr
878003be:	bf00      	nop

878003c0 <gpio_pin_wirte>:
878003c0:	b932      	cbnz	r2, 878003d0 <gpio_pin_wirte+0x10>
878003c2:	2201      	movs	r2, #1
878003c4:	6803      	ldr	r3, [r0, #0]
878003c6:	408a      	lsls	r2, r1
878003c8:	ea23 0302 	bic.w	r3, r3, r2
878003cc:	6003      	str	r3, [r0, #0]
878003ce:	4770      	bx	lr
878003d0:	2a01      	cmp	r2, #1
878003d2:	bf01      	itttt	eq
878003d4:	fa02 f101 	lsleq.w	r1, r2, r1
878003d8:	6803      	ldreq	r3, [r0, #0]
878003da:	430b      	orreq	r3, r1
878003dc:	6003      	streq	r3, [r0, #0]
878003de:	4770      	bx	lr

878003e0 <gpio_interrupt_enable>:
878003e0:	2301      	movs	r3, #1
878003e2:	408b      	lsls	r3, r1
878003e4:	6941      	ldr	r1, [r0, #20]
878003e6:	ea21 0103 	bic.w	r1, r1, r3
878003ea:	6141      	str	r1, [r0, #20]
878003ec:	4770      	bx	lr
878003ee:	bf00      	nop

878003f0 <gpio_interrupt_disable>:
878003f0:	2301      	movs	r3, #1
878003f2:	6942      	ldr	r2, [r0, #20]
878003f4:	408b      	lsls	r3, r1
878003f6:	4313      	orrs	r3, r2
878003f8:	6143      	str	r3, [r0, #20]
878003fa:	4770      	bx	lr

878003fc <gpio_clear_interrup_flags>:
878003fc:	2301      	movs	r3, #1
878003fe:	6982      	ldr	r2, [r0, #24]
87800400:	408b      	lsls	r3, r1
87800402:	4313      	orrs	r3, r2
87800404:	6183      	str	r3, [r0, #24]
87800406:	4770      	bx	lr

87800408 <key_init>:
87800408:	b500      	push	{lr}
8780040a:	2300      	movs	r3, #0
8780040c:	f2c0 230e 	movt	r3, #526	@ 0x20e
87800410:	b083      	sub	sp, #12
87800412:	2205      	movs	r2, #5
87800414:	f24f 0180 	movw	r1, #61568	@ 0xf080
87800418:	f44f 4040 	mov.w	r0, #49152	@ 0xc000
8780041c:	f2c0 2009 	movt	r0, #521	@ 0x209
87800420:	f8c3 208c 	str.w	r2, [r3, #140]	@ 0x8c
87800424:	f8c3 1318 	str.w	r1, [r3, #792]	@ 0x318
87800428:	466a      	mov	r2, sp
8780042a:	2112      	movs	r1, #18
8780042c:	2300      	movs	r3, #0
8780042e:	9300      	str	r3, [sp, #0]
87800430:	f7ff ff9e 	bl	87800370 <gpio_init>
87800434:	b003      	add	sp, #12
87800436:	f85d fb04 	ldr.w	pc, [sp], #4
8780043a:	bf00      	nop

8780043c <key_value_get>:
8780043c:	f44f 4040 	mov.w	r0, #49152	@ 0xc000
87800440:	f2c0 2009 	movt	r0, #521	@ 0x209
87800444:	b508      	push	{r3, lr}
87800446:	2112      	movs	r1, #18
87800448:	f7ff ffb4 	bl	878003b4 <gpio_pin_read>
8780044c:	b968      	cbnz	r0, 8780046a <key_value_get+0x2e>
8780044e:	2064      	movs	r0, #100	@ 0x64
87800450:	f7ff ff3a 	bl	878002c8 <delay>
87800454:	2112      	movs	r1, #18
87800456:	f44f 4040 	mov.w	r0, #49152	@ 0xc000
8780045a:	f2c0 2009 	movt	r0, #521	@ 0x209
8780045e:	f7ff ffa9 	bl	878003b4 <gpio_pin_read>
87800462:	fab0 f080 	clz	r0, r0
87800466:	0940      	lsrs	r0, r0, #5
87800468:	bd08      	pop	{r3, pc}
8780046a:	2112      	movs	r1, #18
8780046c:	f44f 4040 	mov.w	r0, #49152	@ 0xc000
87800470:	f2c0 2009 	movt	r0, #521	@ 0x209
87800474:	f7ff ff9e 	bl	878003b4 <gpio_pin_read>
87800478:	2000      	movs	r0, #0
8780047a:	bd08      	pop	{r3, pc}

8780047c <system_default_handler>:
8780047c:	e7fe      	b.n	8780047c <system_default_handler>
8780047e:	bf00      	nop

87800480 <int_init>:
87800480:	b530      	push	{r4, r5, lr}
87800482:	ee9f 1f10 	mrc	15, 4, r1, cr15, cr0, {0}
87800486:	f36f 010f 	bfc	r1, #0, #16
8780048a:	2300      	movs	r3, #0
8780048c:	f501 5e80 	add.w	lr, r1, #4096	@ 0x1000
87800490:	f04f 34ff 	mov.w	r4, #4294967295	@ 0xffffffff
87800494:	f8de 2004 	ldr.w	r2, [lr, #4]
87800498:	f002 0c1f 	and.w	ip, r2, #31
8780049c:	f503 608c 	add.w	r0, r3, #1120	@ 0x460
878004a0:	459c      	cmp	ip, r3
878004a2:	f103 0301 	add.w	r3, r3, #1
878004a6:	f841 4020 	str.w	r4, [r1, r0, lsl #2]
878004aa:	d1f7      	bne.n	8780049c <int_init+0x1c>
878004ac:	4b0f      	ldr	r3, [pc, #60]	@ (878004ec <int_init+0x6c>)
878004ae:	f501 5c00 	add.w	ip, r1, #8192	@ 0x2000
878004b2:	480f      	ldr	r0, [pc, #60]	@ (878004f0 <int_init+0x70>)
878004b4:	2100      	movs	r1, #0
878004b6:	447b      	add	r3, pc
878004b8:	2401      	movs	r4, #1
878004ba:	4478      	add	r0, pc
878004bc:	f503 62a0 	add.w	r2, r3, #1280	@ 0x500
878004c0:	25f8      	movs	r5, #248	@ 0xf8
878004c2:	f8cc 5004 	str.w	r5, [ip, #4]
878004c6:	2502      	movs	r5, #2
878004c8:	f8cc 5008 	str.w	r5, [ip, #8]
878004cc:	f8ce 4000 	str.w	r4, [lr]
878004d0:	f8cc 4000 	str.w	r4, [ip]
878004d4:	e9c3 0100 	strd	r0, r1, [r3]
878004d8:	3308      	adds	r3, #8
878004da:	4293      	cmp	r3, r2
878004dc:	d1fa      	bne.n	878004d4 <int_init+0x54>
878004de:	2300      	movs	r3, #0
878004e0:	f2c8 7380 	movt	r3, #34688	@ 0x8780
878004e4:	ee0c 3f10 	mcr	15, 0, r3, cr12, cr0, {0}
878004e8:	bd30      	pop	{r4, r5, pc}
878004ea:	bf00      	nop
878004ec:	000000fe 	strdeq	r0, [r0], -lr
878004f0:	ffffffbf 			@ <UNDEFINED> instruction: 0xffffffbf

878004f4 <system_irqtable_init>:
878004f4:	4b06      	ldr	r3, [pc, #24]	@ (87800510 <system_irqtable_init+0x1c>)
878004f6:	2100      	movs	r1, #0
878004f8:	4806      	ldr	r0, [pc, #24]	@ (87800514 <system_irqtable_init+0x20>)
878004fa:	447b      	add	r3, pc
878004fc:	4478      	add	r0, pc
878004fe:	f503 62a0 	add.w	r2, r3, #1280	@ 0x500
87800502:	e9c3 0100 	strd	r0, r1, [r3]
87800506:	3308      	adds	r3, #8
87800508:	4293      	cmp	r3, r2
8780050a:	d1fa      	bne.n	87800502 <system_irqtable_init+0xe>
8780050c:	4770      	bx	lr
8780050e:	bf00      	nop
87800510:	000000ba 	strheq	r0, [r0], -sl
87800514:	ffffff7d 			@ <UNDEFINED> instruction: 0xffffff7d

87800518 <system_register_irqhandler>:
87800518:	4b04      	ldr	r3, [pc, #16]	@ (8780052c <system_register_irqhandler+0x14>)
8780051a:	447b      	add	r3, pc
8780051c:	eb03 0cc0 	add.w	ip, r3, r0, lsl #3
87800520:	f843 1030 	str.w	r1, [r3, r0, lsl #3]
87800524:	f8cc 2004 	str.w	r2, [ip, #4]
87800528:	4770      	bx	lr
8780052a:	bf00      	nop
8780052c:	0000009a 	muleq	r0, sl, r0

87800530 <system_irq_handler>:
87800530:	f3c0 0309 	ubfx	r3, r0, #0, #10
87800534:	2b9f      	cmp	r3, #159	@ 0x9f
87800536:	d813      	bhi.n	87800560 <system_irq_handler+0x30>
87800538:	b510      	push	{r4, lr}
8780053a:	4c0a      	ldr	r4, [pc, #40]	@ (87800564 <system_irq_handler+0x34>)
8780053c:	447c      	add	r4, pc
8780053e:	eb04 01c3 	add.w	r1, r4, r3, lsl #3
87800542:	f8d4 2500 	ldr.w	r2, [r4, #1280]	@ 0x500
87800546:	f854 3033 	ldr.w	r3, [r4, r3, lsl #3]
8780054a:	3201      	adds	r2, #1
8780054c:	6849      	ldr	r1, [r1, #4]
8780054e:	f8c4 2500 	str.w	r2, [r4, #1280]	@ 0x500
87800552:	4798      	blx	r3
87800554:	f8d4 3500 	ldr.w	r3, [r4, #1280]	@ 0x500
87800558:	3b01      	subs	r3, #1
8780055a:	f8c4 3500 	str.w	r3, [r4, #1280]	@ 0x500
8780055e:	bd10      	pop	{r4, pc}
87800560:	4770      	bx	lr
87800562:	bf00      	nop
87800564:	00000078 	andeq	r0, r0, r8, ror r0

87800568 <__main_from_arm>:
87800568:	e51ff004 	ldr	pc, [pc, #-4]	@ 8780056c <__main_from_arm+0x4>
8780056c:	87800571 			@ <UNDEFINED> instruction: 0x87800571

Disassembly of section .text.startup:

87800570 <main>:
87800570:	b510      	push	{r4, lr}
87800572:	2400      	movs	r4, #0
87800574:	f7ff ff84 	bl	87800480 <int_init>
87800578:	f7ff fe00 	bl	8780017c <imx6ul_clock_init>
8780057c:	f7ff fdee 	bl	8780015c <clock_init>
87800580:	f7ff fe6e 	bl	87800260 <led_init>
87800584:	f7ff feb4 	bl	878002f0 <beep_init>
87800588:	f7ff ff3e 	bl	87800408 <key_init>
8780058c:	f7ff ff56 	bl	8780043c <key_value_get>
87800590:	2800      	cmp	r0, #0
87800592:	d0fb      	beq.n	8780058c <main+0x1c>
87800594:	2064      	movs	r0, #100	@ 0x64
87800596:	f7ff fe97 	bl	878002c8 <delay>
8780059a:	f7ff ff4f 	bl	8780043c <key_value_get>
8780059e:	2801      	cmp	r0, #1
878005a0:	d1f4      	bne.n	8780058c <main+0x1c>
878005a2:	4621      	mov	r1, r4
878005a4:	2000      	movs	r0, #0
878005a6:	f7ff fe45 	bl	87800234 <led_switch>
878005aa:	4621      	mov	r1, r4
878005ac:	2000      	movs	r0, #0
878005ae:	f084 0401 	eor.w	r4, r4, #1
878005b2:	f7ff feb3 	bl	8780031c <beep_switch>
878005b6:	e7e9      	b.n	8780058c <main+0x1c>

Disassembly of section .comment:

00000000 <.comment>:
   0:	3a434347 	bcc	10d0d24 <_start-0x8672f2dc>
   4:	62552820 	subsvs	r2, r5, #32, 16	@ 0x200000
   8:	75746e75 	ldrbvc	r6, [r4, #-3701]!	@ 0xfffff18b
   c:	2e333120 	rsfcssp	f3, f3, f0
  10:	2d302e32 	ldccs	14, cr2, [r0, #-200]!	@ 0xffffff38
  14:	62753332 	rsbsvs	r3, r5, #-939524096	@ 0xc8000000
  18:	75746e75 	ldrbvc	r6, [r4, #-3701]!	@ 0xfffff18b
  1c:	31202934 			@ <UNDEFINED> instruction: 0x31202934
  20:	2e322e33 	mrccs	14, 1, r2, cr2, cr3, {1}
  24:	Address 0x24 is out of bounds.


Disassembly of section .ARM.attributes:

00000000 <.ARM.attributes>:
   0:	00002e41 	andeq	r2, r0, r1, asr #28
   4:	61656100 	cmnvs	r5, r0, lsl #2
   8:	01006962 	tsteq	r0, r2, ror #18
   c:	00000024 	andeq	r0, r0, r4, lsr #32
  10:	412d3705 			@ <UNDEFINED> instruction: 0x412d3705
  14:	070a0600 	streq	r0, [sl, -r0, lsl #12]
  18:	09010841 	stmdbeq	r1, {r0, r6, fp}
  1c:	12040a02 	andne	r0, r4, #8192	@ 0x2000
  20:	15011404 	strne	r1, [r1, #-1028]	@ 0xfffffbfc
  24:	18031701 	stmdane	r3, {r0, r8, r9, sl, ip}
  28:	1c021a01 			@ <UNDEFINED> instruction: 0x1c021a01
  2c:	Address 0x2c is out of bounds.

